target datalayout = "e-m:e-p270:32:32-p271:32:32-p272:64:64-i64:64-i128:128-f80:128-n8:16:32:64-S128"
target triple = "x86_64-pc-linux-gnu"

%struct.Aig_ManCut_t_ = type { ptr, ptr, i32, i32, i32, i32, i32, i32, ptr, [4 x ptr] }

; Function Attrs: nounwind uwtable
define void @Aig_ManCutStop(ptr noundef %0) #0 {
  %2 = alloca ptr, align 8
  store ptr %0, ptr %2, align 8, !tbaa !10
  %3 = load ptr, ptr %2, align 8, !tbaa !10
  %4 = getelementptr inbounds nuw %struct.Aig_ManCut_t_, ptr %3, i32 0, i32 8
  %5 = load ptr, ptr %4, align 8, !tbaa !23
  call void @Aig_MmFixedStop(ptr noundef %5, i32 noundef 0)
  %6 = load ptr, ptr %2, align 8, !tbaa !10
  %7 = getelementptr inbounds nuw %struct.Aig_ManCut_t_, ptr %6, i32 0, i32 9
  %8 = getelementptr inbounds [4 x ptr], ptr %7, i64 0, i64 0
  %9 = load ptr, ptr %8, align 8, !tbaa !24
  %10 = icmp ne ptr %9, null
  br i1 %10, label %11, label %19

11:                                               ; preds = %1
  %12 = load ptr, ptr %2, align 8, !tbaa !10
  %13 = getelementptr inbounds nuw %struct.Aig_ManCut_t_, ptr %12, i32 0, i32 9
  %14 = getelementptr inbounds [4 x ptr], ptr %13, i64 0, i64 0
  %15 = load ptr, ptr %14, align 8, !tbaa !24
  call void @free(ptr noundef %15) #10
  %16 = load ptr, ptr %2, align 8, !tbaa !10
  %17 = getelementptr inbounds nuw %struct.Aig_ManCut_t_, ptr %16, i32 0, i32 9
  %18 = getelementptr inbounds [4 x ptr], ptr %17, i64 0, i64 0
  store ptr null, ptr %18, align 8, !tbaa !24
  br label %20

19:                                               ; preds = %1
  br label %20

20:                                               ; preds = %19, %11
  %21 = load ptr, ptr %2, align 8, !tbaa !10
  %22 = getelementptr inbounds nuw %struct.Aig_ManCut_t_, ptr %21, i32 0, i32 1
  %23 = load ptr, ptr %22, align 8, !tbaa !20
  %24 = icmp ne ptr %23, null
  br i1 %24, label %25, label %31

25:                                               ; preds = %20
  %26 = load ptr, ptr %2, align 8, !tbaa !10
  %27 = getelementptr inbounds nuw %struct.Aig_ManCut_t_, ptr %26, i32 0, i32 1
  %28 = load ptr, ptr %27, align 8, !tbaa !20
  call void @free(ptr noundef %28) #10
  %29 = load ptr, ptr %2, align 8, !tbaa !10
  %30 = getelementptr inbounds nuw %struct.Aig_ManCut_t_, ptr %29, i32 0, i32 1
  store ptr null, ptr %30, align 8, !tbaa !20
  br label %32

31:                                               ; preds = %20
  br label %32

32:                                               ; preds = %31, %25
  %33 = load ptr, ptr %2, align 8, !tbaa !10
  %34 = icmp ne ptr %33, null
  br i1 %34, label %35, label %37

35:                                               ; preds = %32
  %36 = load ptr, ptr %2, align 8, !tbaa !10
  call void @free(ptr noundef %36) #10
  store ptr null, ptr %2, align 8, !tbaa !10
  br label %38

37:                                               ; preds = %32
  br label %38

38:                                               ; preds = %37, %35
  ret void
}