; Function Attrs: nounwind uwtable
define void @Aig_ManCutStop(ptr noundef captures(none) %0) local_unnamed_addr #0 {
  %2 = getelementptr inbounds nuw i8, ptr %0, i64 40
  %3 = load ptr, ptr %2, align 8, !tbaa !33
  tail call void @Aig_MmFixedStop(ptr noundef %3, i32 noundef 0) #20
  %4 = getelementptr inbounds nuw i8, ptr %0, i64 48
  %5 = load ptr, ptr %4, align 8, !tbaa !34
  %.not = icmp eq ptr %5, null
  br i1 %.not, label %7, label %6

6:                                                ; preds = %1
  tail call void @free(ptr noundef nonnull %5) #20
  store ptr null, ptr %4, align 8, !tbaa !34
  br label %7

7:                                                ; preds = %1, %6
  %8 = getelementptr inbounds nuw i8, ptr %0, i64 8
  %9 = load ptr, ptr %8, align 8, !tbaa !30
  %.not11 = icmp eq ptr %9, null
  br i1 %.not11, label %11, label %10

10:                                               ; preds = %7
  tail call void @free(ptr noundef nonnull %9) #20
  br label %11

11:                                               ; preds = %7, %10
  tail call void @free(ptr noundef nonnull %0) #20
  ret void
}